; Function Attrs: mustprogress nofree norecurse nosync nounwind memory(read, argmem: readwrite, inaccessiblemem: none) uwtable
define void @_ZN12colvarmodule8rotation24build_correlation_matrixERKSt6vectorINS_4atomESaIS2_EERKS1_INS_7rvectorESaIS7_EE(ptr noundef nonnull align 8 captures(none) dereferenceable(568) %0, ptr noundef nonnull readonly align 8 captures(none) dereferenceable(24) %1, ptr noundef nonnull readonly align 8 captures(none) dereferenceable(24) %2) local_unnamed_addr #10 align 2 {
  %4 = getelementptr inbounds nuw i8, ptr %1, i64 8
  %5 = load ptr, ptr %4, align 8, !tbaa !87
  %6 = load ptr, ptr %1, align 8, !tbaa !90
  %.not = icmp eq ptr %5, %6
  br i1 %.not, label %53, label %.lr.ph

.lr.ph:                                           ; preds = %3
  %7 = ptrtoint ptr %5 to i64
  %8 = ptrtoint ptr %6 to i64
  %9 = sub i64 %7, %8
  %10 = sdiv exact i64 %9, 120
  %.promoted = load double, ptr %0, align 8
  %11 = load ptr, ptr %2, align 8, !tbaa !75
  %12 = getelementptr inbounds nuw i8, ptr %0, i64 8
  %13 = getelementptr inbounds nuw i8, ptr %0, i64 16
  %14 = getelementptr inbounds nuw i8, ptr %0, i64 24
  %15 = getelementptr inbounds nuw i8, ptr %0, i64 32
  %16 = getelementptr inbounds nuw i8, ptr %0, i64 40
  %17 = getelementptr inbounds nuw i8, ptr %0, i64 48
  %18 = getelementptr inbounds nuw i8, ptr %0, i64 56
  %19 = getelementptr inbounds nuw i8, ptr %0, i64 64
  %.promoted40 = load double, ptr %12, align 8, !tbaa !76
  %.promoted42 = load double, ptr %13, align 8, !tbaa !77
  %.promoted44 = load double, ptr %14, align 8, !tbaa !78
  %.promoted46 = load double, ptr %15, align 8, !tbaa !79
  %.promoted48 = load double, ptr %16, align 8, !tbaa !80
  %.promoted50 = load double, ptr %17, align 8, !tbaa !81
  %.promoted52 = load double, ptr %18, align 8, !tbaa !82
  %.promoted54 = load double, ptr %19, align 8, !tbaa !83
  %umax = tail call i64 @llvm.umax.i64(i64 %10, i64 1)
  br label %20

20:                                               ; preds = %.lr.ph, %20
  %21 = phi double [ %.promoted54, %.lr.ph ], [ %51, %20 ]
  %22 = phi double [ %.promoted52, %.lr.ph ], [ %50, %20 ]
  %23 = phi double [ %.promoted50, %.lr.ph ], [ %49, %20 ]
  %24 = phi double [ %.promoted48, %.lr.ph ], [ %46, %20 ]
  %25 = phi double [ %.promoted46, %.lr.ph ], [ %45, %20 ]
  %26 = phi double [ %.promoted44, %.lr.ph ], [ %44, %20 ]
  %27 = phi double [ %.promoted42, %.lr.ph ], [ %41, %20 ]
  %28 = phi double [ %.promoted40, %.lr.ph ], [ %38, %20 ]
  %.039 = phi i64 [ 0, %.lr.ph ], [ %52, %20 ]
  %29 = phi double [ %.promoted, %.lr.ph ], [ %35, %20 ]
  %30 = getelementptr inbounds nuw %"class.colvarmodule::atom", ptr %6, i64 %.039
  %31 = getelementptr inbounds nuw i8, ptr %30, i64 24
  %32 = load double, ptr %31, align 8, !tbaa !91
  %33 = getelementptr inbounds nuw %"class.colvarmodule::rvector", ptr %11, i64 %.039
  %34 = load double, ptr %33, align 8, !tbaa !23
  %35 = tail call double @llvm.fmuladd.f64(double %32, double %34, double %29)
  %36 = getelementptr inbounds nuw i8, ptr %33, i64 8
  %37 = load double, ptr %36, align 8, !tbaa !26
  %38 = tail call double @llvm.fmuladd.f64(double %32, double %37, double %28)
  %39 = getelementptr inbounds nuw i8, ptr %33, i64 16
  %40 = load double, ptr %39, align 8, !tbaa !27
  %41 = tail call double @llvm.fmuladd.f64(double %32, double %40, double %27)
  %42 = getelementptr inbounds nuw i8, ptr %30, i64 32
  %43 = load double, ptr %42, align 8, !tbaa !93
  %44 = tail call double @llvm.fmuladd.f64(double %43, double %34, double %26)
  %45 = tail call double @llvm.fmuladd.f64(double %43, double %37, double %25)
  %46 = tail call double @llvm.fmuladd.f64(double %43, double %40, double %24)
  %47 = getelementptr inbounds nuw i8, ptr %30, i64 40
  %48 = load double, ptr %47, align 8, !tbaa !94
  %49 = tail call double @llvm.fmuladd.f64(double %48, double %34, double %23)
  %50 = tail call double @llvm.fmuladd.f64(double %48, double %37, double %22)
  %51 = tail call double @llvm.fmuladd.f64(double %48, double %40, double %21)
  %52 = add nuw i64 %.039, 1
  %exitcond.not = icmp eq i64 %52, %umax
  br i1 %exitcond.not, label %._crit_edge, label %20, !llvm.loop !95

._crit_edge:                                      ; preds = %20
  store double %35, ptr %0, align 8, !tbaa !86
  store double %38, ptr %12, align 8, !tbaa !76
  store double %41, ptr %13, align 8, !tbaa !77
  store double %44, ptr %14, align 8, !tbaa !78
  store double %45, ptr %15, align 8, !tbaa !79
  store double %46, ptr %16, align 8, !tbaa !80
  store double %49, ptr %17, align 8, !tbaa !81
  store double %50, ptr %18, align 8, !tbaa !82
  store double %51, ptr %19, align 8, !tbaa !83
  br label %53

53:                                               ; preds = %._crit_edge, %3
  ret void
}